; Function Attrs: mustprogress nounwind uwtable
define hidden noundef ptr @_ZNK6Symbol15as_quoted_asciiEv(ptr noundef nonnull align 4 dereferenceable(8) %0) local_unnamed_addr #1 align 2 {
  %2 = getelementptr inbounds i8, ptr %0, i64 6
  %3 = getelementptr inbounds i8, ptr %0, i64 4
  %4 = load i16, ptr %3, align 4
  %5 = zext i16 %4 to i32
  %6 = tail call noundef i32 @_ZN4UTF819quoted_ascii_lengthEPKci(ptr noundef nonnull %2, i32 noundef %5) #17
  %7 = add nsw i32 %6, 1
  %8 = sext i32 %7 to i64
  %9 = tail call noundef ptr @_Z23resource_allocate_bytesmN17AllocFailStrategy13AllocFailEnumE(i64 noundef %8, i32 noundef 0) #17
  %10 = load i16, ptr %3, align 4
  %11 = zext i16 %10 to i32
  tail call void @_ZN4UTF815as_quoted_asciiEPKciPci(ptr noundef nonnull %2, i32 noundef %11, ptr noundef %9, i32 noundef %7) #17
  ret ptr %9
}